; Function Attrs: mustprogress nofree norecurse nosync nounwind willreturn memory(read, inaccessiblemem: none) uwtable
define noundef ptr @_ZN17grpc_event_engine12experimental38grpc_get_wrapped_event_engine_endpointEP13grpc_endpoint(ptr noundef readonly captures(none) %0) local_unnamed_addr #8 {
  %2 = load ptr, ptr %0, align 8, !tbaa !63
  %3 = icmp eq ptr %2, @_ZN17grpc_event_engine12experimental12_GLOBAL__N_133grpc_event_engine_endpoint_vtableE
  br i1 %3, label %4, label %7

4:                                                ; preds = %1
  %5 = getelementptr inbounds nuw i8, ptr %0, i64 8
  %6 = load ptr, ptr %5, align 8, !tbaa !61
  %.val = load ptr, ptr %6, align 8, !tbaa !3
  br label %7

7:                                                ; preds = %1, %4
  %.0 = phi ptr [ %.val, %4 ], [ null, %1 ]
  ret ptr %.0
}